target datalayout = "e-m:e-p270:32:32-p271:32:32-p272:64:64-i64:64-i128:128-f80:128-n8:16:32:64-S128"
target triple = "x86_64-pc-linux-gnu"

%"class.llvm::StringRef" = type { ptr, i64 }

@.str.2 = private unnamed_addr constant [10 x i8] c"<unknown>\00", align 1
@.str.3 = private unnamed_addr constant [7 x i8] c"module\00", align 1
@.str.4 = private unnamed_addr constant [10 x i8] c"namespace\00", align 1
@.str.5 = private unnamed_addr constant [16 x i8] c"namespace-alias\00", align 1
@.str.6 = private unnamed_addr constant [6 x i8] c"macro\00", align 1
@.str.7 = private unnamed_addr constant [5 x i8] c"enum\00", align 1
@.str.8 = private unnamed_addr constant [7 x i8] c"struct\00", align 1
@.str.9 = private unnamed_addr constant [6 x i8] c"class\00", align 1
@.str.10 = private unnamed_addr constant [9 x i8] c"protocol\00", align 1
@.str.11 = private unnamed_addr constant [10 x i8] c"extension\00", align 1
@.str.12 = private unnamed_addr constant [6 x i8] c"union\00", align 1
@.str.13 = private unnamed_addr constant [11 x i8] c"type-alias\00", align 1
@.str.14 = private unnamed_addr constant [9 x i8] c"function\00", align 1
@.str.15 = private unnamed_addr constant [9 x i8] c"variable\00", align 1
@.str.16 = private unnamed_addr constant [6 x i8] c"field\00", align 1
@.str.17 = private unnamed_addr constant [11 x i8] c"enumerator\00", align 1
@.str.18 = private unnamed_addr constant [16 x i8] c"instance-method\00", align 1
@.str.19 = private unnamed_addr constant [13 x i8] c"class-method\00", align 1
@.str.20 = private unnamed_addr constant [14 x i8] c"static-method\00", align 1
@.str.21 = private unnamed_addr constant [18 x i8] c"instance-property\00", align 1
@.str.22 = private unnamed_addr constant [15 x i8] c"class-property\00", align 1
@.str.23 = private unnamed_addr constant [16 x i8] c"static-property\00", align 1
@.str.24 = private unnamed_addr constant [12 x i8] c"constructor\00", align 1
@.str.25 = private unnamed_addr constant [11 x i8] c"destructor\00", align 1
@.str.26 = private unnamed_addr constant [16 x i8] c"conversion-func\00", align 1
@.str.27 = private unnamed_addr constant [6 x i8] c"param\00", align 1
@.str.28 = private unnamed_addr constant [6 x i8] c"using\00", align 1
@.str.29 = private unnamed_addr constant [20 x i8] c"template-type-param\00", align 1
@.str.30 = private unnamed_addr constant [24 x i8] c"template-template-param\00", align 1
@.str.31 = private unnamed_addr constant [24 x i8] c"non-type-template-param\00", align 1
@.str.32 = private unnamed_addr constant [8 x i8] c"concept\00", align 1

; Function Attrs: mustprogress nounwind uwtable
define linkonce_odr hidden noundef i64 @_ZNSt11char_traitsIcE6lengthEPKc(ptr noundef %0) #0 comdat align 2 {
  %2 = alloca ptr, align 8
  store ptr %0, ptr %2, align 8
  %3 = load ptr, ptr %2, align 8
  %4 = call i64 @strlen(ptr noundef %3) #6
  ret i64 %4
}

; Function Attrs: mustprogress nounwind uwtable
define linkonce_odr hidden void @_ZN4llvm9StringRefC2EPKc(ptr noundef nonnull align 8 dereferenceable(16) %0, ptr noundef %1) unnamed_addr #0 comdat align 2 {
  %3 = alloca ptr, align 8
  %4 = alloca ptr, align 8
  store ptr %0, ptr %3, align 8
  store ptr %1, ptr %4, align 8
  %5 = load ptr, ptr %3, align 8
  %6 = getelementptr inbounds nuw %"class.llvm::StringRef", ptr %5, i32 0, i32 0
  %7 = load ptr, ptr %4, align 8
  store ptr %7, ptr %6, align 8
  %8 = getelementptr inbounds nuw %"class.llvm::StringRef", ptr %5, i32 0, i32 1
  %9 = load ptr, ptr %4, align 8
  %10 = icmp ne ptr %9, null
  br i1 %10, label %11, label %14

11:                                               ; preds = %2
  %12 = load ptr, ptr %4, align 8
  %13 = call noundef i64 @_ZNSt11char_traitsIcE6lengthEPKc(ptr noundef %12)
  br label %15

14:                                               ; preds = %2
  br label %15

15:                                               ; preds = %14, %11
  %16 = phi i64 [ %13, %11 ], [ 0, %14 ]
  store i64 %16, ptr %8, align 8
  ret void
}

; Function Attrs: mustprogress nounwind uwtable
define dso_local { ptr, i64 } @_ZN5clang5index19getSymbolKindStringENS0_10SymbolKindE(i8 noundef zeroext %0) #0 {
  %2 = alloca %"class.llvm::StringRef", align 8
  %3 = alloca i8, align 1
  store i8 %0, ptr %3, align 1
  %4 = load i8, ptr %3, align 1
  switch i8 %4, label %36 [
    i8 0, label %5
    i8 1, label %6
    i8 2, label %7
    i8 3, label %8
    i8 4, label %9
    i8 5, label %10
    i8 6, label %11
    i8 7, label %12
    i8 8, label %13
    i8 9, label %14
    i8 10, label %15
    i8 11, label %16
    i8 12, label %17
    i8 13, label %18
    i8 14, label %19
    i8 15, label %20
    i8 16, label %21
    i8 17, label %22
    i8 18, label %23
    i8 19, label %24
    i8 20, label %25
    i8 21, label %26
    i8 22, label %27
    i8 23, label %28
    i8 24, label %29
    i8 25, label %30
    i8 26, label %31
    i8 27, label %32
    i8 28, label %33
    i8 29, label %34
    i8 30, label %35
  ]

5:                                                ; preds = %1
  call void @_ZN4llvm9StringRefC2EPKc(ptr noundef nonnull align 8 dereferenceable(16) %2, ptr noundef @.str.2)
  br label %37

6:                                                ; preds = %1
  call void @_ZN4llvm9StringRefC2EPKc(ptr noundef nonnull align 8 dereferenceable(16) %2, ptr noundef @.str.3)
  br label %37

7:                                                ; preds = %1
  call void @_ZN4llvm9StringRefC2EPKc(ptr noundef nonnull align 8 dereferenceable(16) %2, ptr noundef @.str.4)
  br label %37

8:                                                ; preds = %1
  call void @_ZN4llvm9StringRefC2EPKc(ptr noundef nonnull align 8 dereferenceable(16) %2, ptr noundef @.str.5)
  br label %37

9:                                                ; preds = %1
  call void @_ZN4llvm9StringRefC2EPKc(ptr noundef nonnull align 8 dereferenceable(16) %2, ptr noundef @.str.6)
  br label %37

10:                                               ; preds = %1
  call void @_ZN4llvm9StringRefC2EPKc(ptr noundef nonnull align 8 dereferenceable(16) %2, ptr noundef @.str.7)
  br label %37

11:                                               ; preds = %1
  call void @_ZN4llvm9StringRefC2EPKc(ptr noundef nonnull align 8 dereferenceable(16) %2, ptr noundef @.str.8)
  br label %37

12:                                               ; preds = %1
  call void @_ZN4llvm9StringRefC2EPKc(ptr noundef nonnull align 8 dereferenceable(16) %2, ptr noundef @.str.9)
  br label %37

13:                                               ; preds = %1
  call void @_ZN4llvm9StringRefC2EPKc(ptr noundef nonnull align 8 dereferenceable(16) %2, ptr noundef @.str.10)
  br label %37

14:                                               ; preds = %1
  call void @_ZN4llvm9StringRefC2EPKc(ptr noundef nonnull align 8 dereferenceable(16) %2, ptr noundef @.str.11)
  br label %37

15:                                               ; preds = %1
  call void @_ZN4llvm9StringRefC2EPKc(ptr noundef nonnull align 8 dereferenceable(16) %2, ptr noundef @.str.12)
  br label %37

16:                                               ; preds = %1
  call void @_ZN4llvm9StringRefC2EPKc(ptr noundef nonnull align 8 dereferenceable(16) %2, ptr noundef @.str.13)
  br label %37

17:                                               ; preds = %1
  call void @_ZN4llvm9StringRefC2EPKc(ptr noundef nonnull align 8 dereferenceable(16) %2, ptr noundef @.str.14)
  br label %37

18:                                               ; preds = %1
  call void @_ZN4llvm9StringRefC2EPKc(ptr noundef nonnull align 8 dereferenceable(16) %2, ptr noundef @.str.15)
  br label %37

19:                                               ; preds = %1
  call void @_ZN4llvm9StringRefC2EPKc(ptr noundef nonnull align 8 dereferenceable(16) %2, ptr noundef @.str.16)
  br label %37

20:                                               ; preds = %1
  call void @_ZN4llvm9StringRefC2EPKc(ptr noundef nonnull align 8 dereferenceable(16) %2, ptr noundef @.str.17)
  br label %37

21:                                               ; preds = %1
  call void @_ZN4llvm9StringRefC2EPKc(ptr noundef nonnull align 8 dereferenceable(16) %2, ptr noundef @.str.18)
  br label %37

22:                                               ; preds = %1
  call void @_ZN4llvm9StringRefC2EPKc(ptr noundef nonnull align 8 dereferenceable(16) %2, ptr noundef @.str.19)
  br label %37

23:                                               ; preds = %1
  call void @_ZN4llvm9StringRefC2EPKc(ptr noundef nonnull align 8 dereferenceable(16) %2, ptr noundef @.str.20)
  br label %37

24:                                               ; preds = %1
  call void @_ZN4llvm9StringRefC2EPKc(ptr noundef nonnull align 8 dereferenceable(16) %2, ptr noundef @.str.21)
  br label %37

25:                                               ; preds = %1
  call void @_ZN4llvm9StringRefC2EPKc(ptr noundef nonnull align 8 dereferenceable(16) %2, ptr noundef @.str.22)
  br label %37

26:                                               ; preds = %1
  call void @_ZN4llvm9StringRefC2EPKc(ptr noundef nonnull align 8 dereferenceable(16) %2, ptr noundef @.str.23)
  br label %37

27:                                               ; preds = %1
  call void @_ZN4llvm9StringRefC2EPKc(ptr noundef nonnull align 8 dereferenceable(16) %2, ptr noundef @.str.24)
  br label %37

28:                                               ; preds = %1
  call void @_ZN4llvm9StringRefC2EPKc(ptr noundef nonnull align 8 dereferenceable(16) %2, ptr noundef @.str.25)
  br label %37

29:                                               ; preds = %1
  call void @_ZN4llvm9StringRefC2EPKc(ptr noundef nonnull align 8 dereferenceable(16) %2, ptr noundef @.str.26)
  br label %37

30:                                               ; preds = %1
  call void @_ZN4llvm9StringRefC2EPKc(ptr noundef nonnull align 8 dereferenceable(16) %2, ptr noundef @.str.27)
  br label %37

31:                                               ; preds = %1
  call void @_ZN4llvm9StringRefC2EPKc(ptr noundef nonnull align 8 dereferenceable(16) %2, ptr noundef @.str.28)
  br label %37

32:                                               ; preds = %1
  call void @_ZN4llvm9StringRefC2EPKc(ptr noundef nonnull align 8 dereferenceable(16) %2, ptr noundef @.str.29)
  br label %37

33:                                               ; preds = %1
  call void @_ZN4llvm9StringRefC2EPKc(ptr noundef nonnull align 8 dereferenceable(16) %2, ptr noundef @.str.30)
  br label %37

34:                                               ; preds = %1
  call void @_ZN4llvm9StringRefC2EPKc(ptr noundef nonnull align 8 dereferenceable(16) %2, ptr noundef @.str.31)
  br label %37

35:                                               ; preds = %1
  call void @_ZN4llvm9StringRefC2EPKc(ptr noundef nonnull align 8 dereferenceable(16) %2, ptr noundef @.str.32)
  br label %37

36:                                               ; preds = %1
  unreachable

37:                                               ; preds = %35, %34, %33, %32, %31, %30, %29, %28, %27, %26, %25, %24, %23, %22, %21, %20, %19, %18, %17, %16, %15, %14, %13, %12, %11, %10, %9, %8, %7, %6, %5
  %38 = load { ptr, i64 }, ptr %2, align 8
  ret { ptr, i64 } %38
}